target datalayout = "e-m:e-p270:32:32-p271:32:32-p272:64:64-i64:64-i128:128-f80:128-n8:16:32:64-S128"
target triple = "x86_64-pc-linux-gnu"

@.str.26 = private unnamed_addr constant [13 x i8] c"SDL_AUDIO_U8\00", align 1
@.str.27 = private unnamed_addr constant [13 x i8] c"SDL_AUDIO_S8\00", align 1
@.str.28 = private unnamed_addr constant [16 x i8] c"SDL_AUDIO_S16LE\00", align 1
@.str.29 = private unnamed_addr constant [16 x i8] c"SDL_AUDIO_S16BE\00", align 1
@.str.30 = private unnamed_addr constant [16 x i8] c"SDL_AUDIO_S32LE\00", align 1
@.str.31 = private unnamed_addr constant [16 x i8] c"SDL_AUDIO_S32BE\00", align 1
@.str.32 = private unnamed_addr constant [16 x i8] c"SDL_AUDIO_F32LE\00", align 1
@.str.33 = private unnamed_addr constant [16 x i8] c"SDL_AUDIO_F32BE\00", align 1
@.str.34 = private unnamed_addr constant [18 x i8] c"SDL_AUDIO_UNKNOWN\00", align 1

; Function Attrs: nounwind uwtable
define hidden ptr @SDL_GetAudioFormatName_REAL(i32 noundef %0) #0 {
  %2 = alloca ptr, align 8
  %3 = alloca i32, align 4
  store i32 %0, ptr %3, align 4
  %4 = load i32, ptr %3, align 4
  switch i32 %4, label %13 [
    i32 8, label %5
    i32 32776, label %6
    i32 32784, label %7
    i32 36880, label %8
    i32 32800, label %9
    i32 36896, label %10
    i32 33056, label %11
    i32 37152, label %12
  ]

5:                                                ; preds = %1
  store ptr @.str.26, ptr %2, align 8
  br label %14

6:                                                ; preds = %1
  store ptr @.str.27, ptr %2, align 8
  br label %14

7:                                                ; preds = %1
  store ptr @.str.28, ptr %2, align 8
  br label %14

8:                                                ; preds = %1
  store ptr @.str.29, ptr %2, align 8
  br label %14

9:                                                ; preds = %1
  store ptr @.str.30, ptr %2, align 8
  br label %14

10:                                               ; preds = %1
  store ptr @.str.31, ptr %2, align 8
  br label %14

11:                                               ; preds = %1
  store ptr @.str.32, ptr %2, align 8
  br label %14

12:                                               ; preds = %1
  store ptr @.str.33, ptr %2, align 8
  br label %14

13:                                               ; preds = %1
  store ptr @.str.34, ptr %2, align 8
  br label %14

14:                                               ; preds = %13, %12, %11, %10, %9, %8, %7, %6, %5
  %15 = load ptr, ptr %2, align 8
  ret ptr %15
}