; Function Attrs: mustprogress nofree norecurse nosync nounwind willreturn memory(none) uwtable
define hidden noundef nonnull ptr @SDL_GetAudioFormatName_REAL(i32 noundef %0) local_unnamed_addr #5 {
  switch i32 %0, label %9 [
    i32 8, label %10
    i32 32776, label %2
    i32 32784, label %3
    i32 36880, label %4
    i32 32800, label %5
    i32 36896, label %6
    i32 33056, label %7
    i32 37152, label %8
  ]

2:                                                ; preds = %1
  br label %10

3:                                                ; preds = %1
  br label %10

4:                                                ; preds = %1
  br label %10

5:                                                ; preds = %1
  br label %10

6:                                                ; preds = %1
  br label %10

7:                                                ; preds = %1
  br label %10

8:                                                ; preds = %1
  br label %10

9:                                                ; preds = %1
  br label %10

10:                                               ; preds = %1, %9, %8, %7, %6, %5, %4, %3, %2
  %.0 = phi ptr [ @.str.34, %9 ], [ @.str.33, %8 ], [ @.str.32, %7 ], [ @.str.31, %6 ], [ @.str.30, %5 ], [ @.str.29, %4 ], [ @.str.28, %3 ], [ @.str.27, %2 ], [ @.str.26, %1 ]
  ret ptr %.0
}